; Function Attrs: mustprogress uwtable
define void @_ZN7rocksdb14ThreadedWriter10ThreadMainEv(ptr noundef nonnull align 8 dereferenceable(192) %this) #0 align 2 personality ptr @__gxx_personality_v0 {
entry:
  %io = alloca %"struct.rocksdb::ThreadedWriter::IO", align 8
  %q_ = getelementptr inbounds i8, ptr %this, i64 24
  %signal_ = getelementptr inbounds i8, ptr %io, i64 24
  %cache_ = getelementptr inbounds i8, ptr %this, i64 8
  %buf_ = getelementptr inbounds i8, ptr %io, i64 8
  %_M_manager.i.i = getelementptr inbounds i8, ptr %io, i64 48
  %callback_ = getelementptr inbounds i8, ptr %io, i64 32
  %_M_invoker.i = getelementptr inbounds i8, ptr %io, i64 56
  br label %while.body

while.body:                                       ; preds = %_ZN7rocksdb14ThreadedWriter2IOD2Ev.exit8, %entry
  call void @_ZN7rocksdb12BoundedQueueINS_14ThreadedWriter2IOEE3PopEv(ptr nonnull sret(%"struct.rocksdb::ThreadedWriter::IO") align 8 %io, ptr noundef nonnull align 8 dereferenceable(144) %q_)
  %0 = load i8, ptr %signal_, align 8
  %1 = and i8 %0, 1
  %tobool.not = icmp eq i8 %1, 0
  br i1 %tobool.not, label %while.cond2, label %cleanup

while.cond2:                                      ; preds = %while.body, %invoke.cont6
  %2 = load ptr, ptr %cache_, align 8
  %3 = load ptr, ptr %buf_, align 8
  %pos_.i = getelementptr inbounds i8, ptr %3, i64 24
  %4 = load i64, ptr %pos_.i, align 8
  %vtable = load ptr, ptr %2, align 8
  %vfn = getelementptr inbounds i8, ptr %vtable, i64 80
  %5 = load ptr, ptr %vfn, align 8
  %call4 = invoke noundef zeroext i1 %5(ptr noundef nonnull align 8 dereferenceable(32) %2, i64 noundef %4)
          to label %invoke.cont3 unwind label %lpad.loopexit

invoke.cont3:                                     ; preds = %while.cond2
  br i1 %call4, label %while.end, label %while.body5

while.body5:                                      ; preds = %invoke.cont3
  %call7 = invoke noundef nonnull align 8 dereferenceable(16) ptr @_ZN7rocksdb11SystemClock7DefaultEv()
          to label %invoke.cont6 unwind label %lpad.loopexit

invoke.cont6:                                     ; preds = %while.body5
  %6 = load ptr, ptr %call7, align 8
  %vtable9 = load ptr, ptr %6, align 8
  %vfn10 = getelementptr inbounds i8, ptr %vtable9, i64 184
  %7 = load ptr, ptr %vfn10, align 8
  invoke void %7(ptr noundef nonnull align 8 dereferenceable(32) %6, i32 noundef 1000000)
          to label %while.cond2 unwind label %lpad.loopexit, !llvm.loop !27

lpad.loopexit:                                    ; preds = %while.cond2, %while.body5, %invoke.cont6
  %lpad.loopexit9 = landingpad { ptr, i32 }
          cleanup
  br label %lpad

lpad.loopexit.split-lp.loopexit:                  ; preds = %if.end.i, %while.end
  %lpad.loopexit11 = landingpad { ptr, i32 }
          cleanup
  br label %lpad

lpad.loopexit.split-lp.loopexit.split-lp:         ; preds = %if.then.i
  %lpad.loopexit.split-lp12 = landingpad { ptr, i32 }
          cleanup
  br label %lpad

lpad:                                             ; preds = %lpad.loopexit.split-lp.loopexit, %lpad.loopexit.split-lp.loopexit.split-lp, %lpad.loopexit
  %lpad.phi = phi { ptr, i32 } [ %lpad.loopexit9, %lpad.loopexit ], [ %lpad.loopexit11, %lpad.loopexit.split-lp.loopexit ], [ %lpad.loopexit.split-lp12, %lpad.loopexit.split-lp.loopexit.split-lp ]
  %8 = load ptr, ptr %_M_manager.i.i, align 8
  %tobool.not.i.i.i = icmp eq ptr %8, null
  br i1 %tobool.not.i.i.i, label %_ZN7rocksdb14ThreadedWriter2IOD2Ev.exit, label %if.then.i.i.i

if.then.i.i.i:                                    ; preds = %lpad
  %call.i.i.i = invoke noundef zeroext i1 %8(ptr noundef nonnull align 8 dereferenceable(16) %callback_, ptr noundef nonnull align 8 dereferenceable(16) %callback_, i32 noundef 3)
          to label %_ZN7rocksdb14ThreadedWriter2IOD2Ev.exit unwind label %terminate.lpad.i.i.i

terminate.lpad.i.i.i:                             ; preds = %if.then.i.i.i
  %9 = landingpad { ptr, i32 }
          catch ptr null
  %10 = extractvalue { ptr, i32 } %9, 0
  call void @__clang_call_terminate(ptr %10) #18
  unreachable

_ZN7rocksdb14ThreadedWriter2IOD2Ev.exit:          ; preds = %lpad, %if.then.i.i.i
  resume { ptr, i32 } %lpad.phi

while.end:                                        ; preds = %invoke.cont3
  invoke void @_ZN7rocksdb14ThreadedWriter10DispatchIOERKNS0_2IOE(ptr noundef nonnull align 8 dereferenceable(192) %this, ptr noundef nonnull align 8 dereferenceable(64) %io)
          to label %invoke.cont12 unwind label %lpad.loopexit.split-lp.loopexit

invoke.cont12:                                    ; preds = %while.end
  %11 = load ptr, ptr %_M_manager.i.i, align 8
  %tobool.not.i.i = icmp eq ptr %11, null
  br i1 %tobool.not.i.i, label %if.then.i, label %if.end.i

if.then.i:                                        ; preds = %invoke.cont12
  invoke void @_ZSt25__throw_bad_function_callv() #20
          to label %.noexc unwind label %lpad.loopexit.split-lp.loopexit.split-lp

.noexc:                                           ; preds = %if.then.i
  unreachable

if.end.i:                                         ; preds = %invoke.cont12
  %12 = load ptr, ptr %_M_invoker.i, align 8
  invoke void %12(ptr noundef nonnull align 8 dereferenceable(16) %callback_)
          to label %cleanup unwind label %lpad.loopexit.split-lp.loopexit

cleanup:                                          ; preds = %if.end.i, %while.body
  %13 = load ptr, ptr %_M_manager.i.i, align 8
  %tobool.not.i.i.i3 = icmp eq ptr %13, null
  br i1 %tobool.not.i.i.i3, label %_ZN7rocksdb14ThreadedWriter2IOD2Ev.exit8, label %if.then.i.i.i4

if.then.i.i.i4:                                   ; preds = %cleanup
  %call.i.i.i6 = invoke noundef zeroext i1 %13(ptr noundef nonnull align 8 dereferenceable(16) %callback_, ptr noundef nonnull align 8 dereferenceable(16) %callback_, i32 noundef 3)
          to label %_ZN7rocksdb14ThreadedWriter2IOD2Ev.exit8 unwind label %terminate.lpad.i.i.i7

terminate.lpad.i.i.i7:                            ; preds = %if.then.i.i.i4
  %14 = landingpad { ptr, i32 }
          catch ptr null
  %15 = extractvalue { ptr, i32 } %14, 0
  call void @__clang_call_terminate(ptr %15) #18
  unreachable

_ZN7rocksdb14ThreadedWriter2IOD2Ev.exit8:         ; preds = %cleanup, %if.then.i.i.i4
  br i1 %tobool.not, label %while.body, label %while.end14

while.end14:                                      ; preds = %_ZN7rocksdb14ThreadedWriter2IOD2Ev.exit8
  ret void
}